target datalayout = "e-m:e-p270:32:32-p271:32:32-p272:64:64-i64:64-i128:128-f80:128-n8:16:32:64-S128"
target triple = "x86_64-pc-linux-gnu"

; Function Attrs: nounwind uwtable
define dso_local void @draw_no_image(ptr noundef %0, ptr noundef %1) #0 {
  %3 = alloca ptr, align 8
  %4 = alloca ptr, align 8
  %5 = alloca i32, align 4
  %6 = alloca i32, align 4
  store ptr %0, ptr %3, align 8, !tbaa !7
  store ptr %1, ptr %4, align 8, !tbaa !12
  call void @llvm.lifetime.start.p0(i64 4, ptr %5) #11
  %7 = load ptr, ptr %4, align 8, !tbaa !12
  %8 = call i32 @gtk_widget_get_allocated_width(ptr noundef %7)
  store i32 %8, ptr %5, align 4, !tbaa !14
  call void @llvm.lifetime.start.p0(i64 4, ptr %6) #11
  %9 = load ptr, ptr %4, align 8, !tbaa !12
  %10 = call i32 @gtk_widget_get_allocated_height(ptr noundef %9)
  store i32 %10, ptr %6, align 4, !tbaa !14
  %11 = load ptr, ptr %3, align 8, !tbaa !7
  call void @cairo_set_line_width(ptr noundef %11, double noundef 5.000000e+00)
  %12 = load ptr, ptr %3, align 8, !tbaa !7
  call void @cairo_set_source_rgb(ptr noundef %12, double noundef 1.000000e+00, double noundef 0.000000e+00, double noundef 0.000000e+00)
  %13 = load ptr, ptr %3, align 8, !tbaa !7
  call void @cairo_move_to(ptr noundef %13, double noundef 0.000000e+00, double noundef 0.000000e+00)
  %14 = load ptr, ptr %3, align 8, !tbaa !7
  %15 = load i32, ptr %5, align 4, !tbaa !14
  %16 = uitofp i32 %15 to double
  %17 = load i32, ptr %6, align 4, !tbaa !14
  %18 = uitofp i32 %17 to double
  call void @cairo_line_to(ptr noundef %14, double noundef %16, double noundef %18)
  %19 = load ptr, ptr %3, align 8, !tbaa !7
  %20 = load i32, ptr %5, align 4, !tbaa !14
  %21 = uitofp i32 %20 to double
  call void @cairo_move_to(ptr noundef %19, double noundef %21, double noundef 0.000000e+00)
  %22 = load ptr, ptr %3, align 8, !tbaa !7
  %23 = load i32, ptr %6, align 4, !tbaa !14
  %24 = uitofp i32 %23 to double
  call void @cairo_line_to(ptr noundef %22, double noundef 0.000000e+00, double noundef %24)
  %25 = load ptr, ptr %3, align 8, !tbaa !7
  call void @cairo_stroke(ptr noundef %25)
  call void @llvm.lifetime.end.p0(i64 4, ptr %6) #11
  call void @llvm.lifetime.end.p0(i64 4, ptr %5) #11
  ret void
}