; Function Attrs: nounwind uwtable
define dso_local void @draw_no_image(ptr noundef %0, ptr noundef %1) local_unnamed_addr #0 {
  %3 = tail call i32 @gtk_widget_get_allocated_width(ptr noundef %1) #8
  %4 = tail call i32 @gtk_widget_get_allocated_height(ptr noundef %1) #8
  tail call void @cairo_set_line_width(ptr noundef %0, double noundef 5.000000e+00) #8
  tail call void @cairo_set_source_rgb(ptr noundef %0, double noundef 1.000000e+00, double noundef 0.000000e+00, double noundef 0.000000e+00) #8
  tail call void @cairo_move_to(ptr noundef %0, double noundef 0.000000e+00, double noundef 0.000000e+00) #8
  %5 = uitofp i32 %3 to double
  %6 = uitofp i32 %4 to double
  tail call void @cairo_line_to(ptr noundef %0, double noundef %5, double noundef %6) #8
  tail call void @cairo_move_to(ptr noundef %0, double noundef %5, double noundef 0.000000e+00) #8
  tail call void @cairo_line_to(ptr noundef %0, double noundef 0.000000e+00, double noundef %6) #8
  tail call void @cairo_stroke(ptr noundef %0) #8
  ret void
}